; Function Attrs: nounwind uwtable
define internal noundef i32 @SHA3_clear(ptr noundef captures(none) %0) #0 {
  %2 = getelementptr inbounds nuw i8, ptr %0, i64 24
  %3 = load ptr, ptr %2, align 8, !tbaa !16
  %.not = icmp eq ptr %3, null
  br i1 %.not, label %5, label %4

4:                                                ; preds = %1
  tail call void @python_hashlib_Hacl_Hash_SHA3_free(ptr noundef nonnull %3) #4
  store ptr null, ptr %2, align 8, !tbaa !16
  br label %5

5:                                                ; preds = %4, %1
  ret i32 0
}